target datalayout = "e-m:e-p270:32:32-p271:32:32-p272:64:64-i64:64-i128:128-f80:128-n8:16:32:64-S128"
target triple = "x86_64-pc-linux-gnu"

%struct.FunctionCallInfoBaseData = type { ptr, ptr, ptr, i32, i8, i16, [0 x %struct.NullableDatum] }
%struct.NullableDatum = type { i64, i8 }
%struct.BOX = type { %struct.Point, %struct.Point }
%struct.Point = type { double, double }
%struct.spgPickSplitIn = type { i32, ptr, i32 }
%struct.spgPickSplitOut = type { i8, i64, i32, ptr, ptr, ptr }

; Function Attrs: inlinehint nounwind uwtable
define internal i64 @PointerGetDatum(ptr noundef %0) #2 {
  %2 = alloca ptr, align 8
  store ptr %0, ptr %2, align 8
  %3 = load ptr, ptr %2, align 8
  %4 = ptrtoint ptr %3 to i64
  ret i64 %4
}

; Function Attrs: nounwind uwtable
define internal zeroext i8 @getQuadrant(ptr noundef %0, ptr noundef %1) #0 {
  %3 = alloca ptr, align 8
  %4 = alloca ptr, align 8
  %5 = alloca i8, align 1
  store ptr %0, ptr %3, align 8
  store ptr %1, ptr %4, align 8
  call void @llvm.lifetime.start.p0(i64 1, ptr %5) #6
  store i8 0, ptr %5, align 1
  %6 = load ptr, ptr %4, align 8
  %7 = getelementptr inbounds nuw %struct.BOX, ptr %6, i32 0, i32 1
  %8 = getelementptr inbounds nuw %struct.Point, ptr %7, i32 0, i32 0
  %9 = load double, ptr %8, align 8
  %10 = load ptr, ptr %3, align 8
  %11 = getelementptr inbounds nuw %struct.BOX, ptr %10, i32 0, i32 1
  %12 = getelementptr inbounds nuw %struct.Point, ptr %11, i32 0, i32 0
  %13 = load double, ptr %12, align 8
  %14 = fcmp ogt double %9, %13
  br i1 %14, label %15, label %20

15:                                               ; preds = %2
  %16 = load i8, ptr %5, align 1
  %17 = zext i8 %16 to i32
  %18 = or i32 %17, 8
  %19 = trunc i32 %18 to i8
  store i8 %19, ptr %5, align 1
  br label %20

20:                                               ; preds = %15, %2
  %21 = load ptr, ptr %4, align 8
  %22 = getelementptr inbounds nuw %struct.BOX, ptr %21, i32 0, i32 0
  %23 = getelementptr inbounds nuw %struct.Point, ptr %22, i32 0, i32 0
  %24 = load double, ptr %23, align 8
  %25 = load ptr, ptr %3, align 8
  %26 = getelementptr inbounds nuw %struct.BOX, ptr %25, i32 0, i32 0
  %27 = getelementptr inbounds nuw %struct.Point, ptr %26, i32 0, i32 0
  %28 = load double, ptr %27, align 8
  %29 = fcmp ogt double %24, %28
  br i1 %29, label %30, label %35

30:                                               ; preds = %20
  %31 = load i8, ptr %5, align 1
  %32 = zext i8 %31 to i32
  %33 = or i32 %32, 4
  %34 = trunc i32 %33 to i8
  store i8 %34, ptr %5, align 1
  br label %35

35:                                               ; preds = %30, %20
  %36 = load ptr, ptr %4, align 8
  %37 = getelementptr inbounds nuw %struct.BOX, ptr %36, i32 0, i32 1
  %38 = getelementptr inbounds nuw %struct.Point, ptr %37, i32 0, i32 1
  %39 = load double, ptr %38, align 8
  %40 = load ptr, ptr %3, align 8
  %41 = getelementptr inbounds nuw %struct.BOX, ptr %40, i32 0, i32 1
  %42 = getelementptr inbounds nuw %struct.Point, ptr %41, i32 0, i32 1
  %43 = load double, ptr %42, align 8
  %44 = fcmp ogt double %39, %43
  br i1 %44, label %45, label %50

45:                                               ; preds = %35
  %46 = load i8, ptr %5, align 1
  %47 = zext i8 %46 to i32
  %48 = or i32 %47, 2
  %49 = trunc i32 %48 to i8
  store i8 %49, ptr %5, align 1
  br label %50

50:                                               ; preds = %45, %35
  %51 = load ptr, ptr %4, align 8
  %52 = getelementptr inbounds nuw %struct.BOX, ptr %51, i32 0, i32 0
  %53 = getelementptr inbounds nuw %struct.Point, ptr %52, i32 0, i32 1
  %54 = load double, ptr %53, align 8
  %55 = load ptr, ptr %3, align 8
  %56 = getelementptr inbounds nuw %struct.BOX, ptr %55, i32 0, i32 0
  %57 = getelementptr inbounds nuw %struct.Point, ptr %56, i32 0, i32 1
  %58 = load double, ptr %57, align 8
  %59 = fcmp ogt double %54, %58
  br i1 %59, label %60, label %65

60:                                               ; preds = %50
  %61 = load i8, ptr %5, align 1
  %62 = zext i8 %61 to i32
  %63 = or i32 %62, 1
  %64 = trunc i32 %63 to i8
  store i8 %64, ptr %5, align 1
  br label %65

65:                                               ; preds = %60, %50
  %66 = load i8, ptr %5, align 1
  call void @llvm.lifetime.end.p0(i64 1, ptr %5) #6
  ret i8 %66
}

; Function Attrs: inlinehint nounwind uwtable
define internal i64 @BoxPGetDatum(ptr noundef %0) #2 {
  %2 = alloca ptr, align 8
  store ptr %0, ptr %2, align 8
  %3 = load ptr, ptr %2, align 8
  %4 = call i64 @PointerGetDatum(ptr noundef %3)
  ret i64 %4
}

; Function Attrs: inlinehint nounwind uwtable
define internal ptr @DatumGetBoxP(i64 noundef %0) #2 {
  %2 = alloca i64, align 8
  store i64 %0, ptr %2, align 8
  %3 = load i64, ptr %2, align 8
  %4 = call ptr @DatumGetPointer(i64 noundef %3)
  ret ptr %4
}

; Function Attrs: inlinehint nounwind uwtable
define internal ptr @DatumGetPointer(i64 noundef %0) #2 {
  %2 = alloca i64, align 8
  store i64 %0, ptr %2, align 8
  %3 = load i64, ptr %2, align 8
  %4 = inttoptr i64 %3 to ptr
  ret ptr %4
}

; Function Attrs: nounwind uwtable
define dso_local i64 @spg_box_quad_picksplit(ptr noundef %0) #0 {
  %2 = alloca ptr, align 8
  %3 = alloca ptr, align 8
  %4 = alloca ptr, align 8
  %5 = alloca ptr, align 8
  %6 = alloca i32, align 4
  %7 = alloca i32, align 4
  %8 = alloca ptr, align 8
  %9 = alloca ptr, align 8
  %10 = alloca ptr, align 8
  %11 = alloca ptr, align 8
  %12 = alloca ptr, align 8
  %13 = alloca ptr, align 8
  %14 = alloca i8, align 1
  store ptr %0, ptr %2, align 8
  call void @llvm.lifetime.start.p0(i64 8, ptr %3) #6
  %15 = load ptr, ptr %2, align 8
  %16 = getelementptr inbounds nuw %struct.FunctionCallInfoBaseData, ptr %15, i32 0, i32 6
  %17 = getelementptr inbounds [0 x %struct.NullableDatum], ptr %16, i64 0, i64 0
  %18 = getelementptr inbounds nuw %struct.NullableDatum, ptr %17, i32 0, i32 0
  %19 = load i64, ptr %18, align 8
  %20 = call ptr @DatumGetPointer(i64 noundef %19)
  store ptr %20, ptr %3, align 8
  call void @llvm.lifetime.start.p0(i64 8, ptr %4) #6
  %21 = load ptr, ptr %2, align 8
  %22 = getelementptr inbounds nuw %struct.FunctionCallInfoBaseData, ptr %21, i32 0, i32 6
  %23 = getelementptr inbounds [0 x %struct.NullableDatum], ptr %22, i64 0, i64 1
  %24 = getelementptr inbounds nuw %struct.NullableDatum, ptr %23, i32 0, i32 0
  %25 = load i64, ptr %24, align 8
  %26 = call ptr @DatumGetPointer(i64 noundef %25)
  store ptr %26, ptr %4, align 8
  call void @llvm.lifetime.start.p0(i64 8, ptr %5) #6
  call void @llvm.lifetime.start.p0(i64 4, ptr %6) #6
  call void @llvm.lifetime.start.p0(i64 4, ptr %7) #6
  call void @llvm.lifetime.start.p0(i64 8, ptr %8) #6
  %27 = load ptr, ptr %3, align 8
  %28 = getelementptr inbounds nuw %struct.spgPickSplitIn, ptr %27, i32 0, i32 0
  %29 = load i32, ptr %28, align 8
  %30 = sext i32 %29 to i64
  %31 = mul i64 8, %30
  %32 = call ptr @palloc(i64 noundef %31)
  store ptr %32, ptr %8, align 8
  call void @llvm.lifetime.start.p0(i64 8, ptr %9) #6
  %33 = load ptr, ptr %3, align 8
  %34 = getelementptr inbounds nuw %struct.spgPickSplitIn, ptr %33, i32 0, i32 0
  %35 = load i32, ptr %34, align 8
  %36 = sext i32 %35 to i64
  %37 = mul i64 8, %36
  %38 = call ptr @palloc(i64 noundef %37)
  store ptr %38, ptr %9, align 8
  call void @llvm.lifetime.start.p0(i64 8, ptr %10) #6
  %39 = load ptr, ptr %3, align 8
  %40 = getelementptr inbounds nuw %struct.spgPickSplitIn, ptr %39, i32 0, i32 0
  %41 = load i32, ptr %40, align 8
  %42 = sext i32 %41 to i64
  %43 = mul i64 8, %42
  %44 = call ptr @palloc(i64 noundef %43)
  store ptr %44, ptr %10, align 8
  call void @llvm.lifetime.start.p0(i64 8, ptr %11) #6
  %45 = load ptr, ptr %3, align 8
  %46 = getelementptr inbounds nuw %struct.spgPickSplitIn, ptr %45, i32 0, i32 0
  %47 = load i32, ptr %46, align 8
  %48 = sext i32 %47 to i64
  %49 = mul i64 8, %48
  %50 = call ptr @palloc(i64 noundef %49)
  store ptr %50, ptr %11, align 8
  store i32 0, ptr %7, align 4
  br label %51

51:                                               ; preds = %98, %1
  %52 = load i32, ptr %7, align 4
  %53 = load ptr, ptr %3, align 8
  %54 = getelementptr inbounds nuw %struct.spgPickSplitIn, ptr %53, i32 0, i32 0
  %55 = load i32, ptr %54, align 8
  %56 = icmp slt i32 %52, %55
  br i1 %56, label %57, label %101

57:                                               ; preds = %51
  call void @llvm.lifetime.start.p0(i64 8, ptr %12) #6
  %58 = load ptr, ptr %3, align 8
  %59 = getelementptr inbounds nuw %struct.spgPickSplitIn, ptr %58, i32 0, i32 1
  %60 = load ptr, ptr %59, align 8
  %61 = load i32, ptr %7, align 4
  %62 = sext i32 %61 to i64
  %63 = getelementptr inbounds i64, ptr %60, i64 %62
  %64 = load i64, ptr %63, align 8
  %65 = call ptr @DatumGetBoxP(i64 noundef %64)
  store ptr %65, ptr %12, align 8
  %66 = load ptr, ptr %12, align 8
  %67 = getelementptr inbounds nuw %struct.BOX, ptr %66, i32 0, i32 1
  %68 = getelementptr inbounds nuw %struct.Point, ptr %67, i32 0, i32 0
  %69 = load double, ptr %68, align 8
  %70 = load ptr, ptr %8, align 8
  %71 = load i32, ptr %7, align 4
  %72 = sext i32 %71 to i64
  %73 = getelementptr inbounds double, ptr %70, i64 %72
  store double %69, ptr %73, align 8
  %74 = load ptr, ptr %12, align 8
  %75 = getelementptr inbounds nuw %struct.BOX, ptr %74, i32 0, i32 0
  %76 = getelementptr inbounds nuw %struct.Point, ptr %75, i32 0, i32 0
  %77 = load double, ptr %76, align 8
  %78 = load ptr, ptr %9, align 8
  %79 = load i32, ptr %7, align 4
  %80 = sext i32 %79 to i64
  %81 = getelementptr inbounds double, ptr %78, i64 %80
  store double %77, ptr %81, align 8
  %82 = load ptr, ptr %12, align 8
  %83 = getelementptr inbounds nuw %struct.BOX, ptr %82, i32 0, i32 1
  %84 = getelementptr inbounds nuw %struct.Point, ptr %83, i32 0, i32 1
  %85 = load double, ptr %84, align 8
  %86 = load ptr, ptr %10, align 8
  %87 = load i32, ptr %7, align 4
  %88 = sext i32 %87 to i64
  %89 = getelementptr inbounds double, ptr %86, i64 %88
  store double %85, ptr %89, align 8
  %90 = load ptr, ptr %12, align 8
  %91 = getelementptr inbounds nuw %struct.BOX, ptr %90, i32 0, i32 0
  %92 = getelementptr inbounds nuw %struct.Point, ptr %91, i32 0, i32 1
  %93 = load double, ptr %92, align 8
  %94 = load ptr, ptr %11, align 8
  %95 = load i32, ptr %7, align 4
  %96 = sext i32 %95 to i64
  %97 = getelementptr inbounds double, ptr %94, i64 %96
  store double %93, ptr %97, align 8
  call void @llvm.lifetime.end.p0(i64 8, ptr %12) #6
  br label %98

98:                                               ; preds = %57
  %99 = load i32, ptr %7, align 4
  %100 = add i32 %99, 1
  store i32 %100, ptr %7, align 4
  br label %51, !llvm.loop !6

101:                                              ; preds = %51
  %102 = load ptr, ptr %8, align 8
  %103 = load ptr, ptr %3, align 8
  %104 = getelementptr inbounds nuw %struct.spgPickSplitIn, ptr %103, i32 0, i32 0
  %105 = load i32, ptr %104, align 8
  %106 = sext i32 %105 to i64
  call void @pg_qsort(ptr noundef %102, i64 noundef %106, i64 noundef 8, ptr noundef @compareDoubles)
  %107 = load ptr, ptr %9, align 8
  %108 = load ptr, ptr %3, align 8
  %109 = getelementptr inbounds nuw %struct.spgPickSplitIn, ptr %108, i32 0, i32 0
  %110 = load i32, ptr %109, align 8
  %111 = sext i32 %110 to i64
  call void @pg_qsort(ptr noundef %107, i64 noundef %111, i64 noundef 8, ptr noundef @compareDoubles)
  %112 = load ptr, ptr %10, align 8
  %113 = load ptr, ptr %3, align 8
  %114 = getelementptr inbounds nuw %struct.spgPickSplitIn, ptr %113, i32 0, i32 0
  %115 = load i32, ptr %114, align 8
  %116 = sext i32 %115 to i64
  call void @pg_qsort(ptr noundef %112, i64 noundef %116, i64 noundef 8, ptr noundef @compareDoubles)
  %117 = load ptr, ptr %11, align 8
  %118 = load ptr, ptr %3, align 8
  %119 = getelementptr inbounds nuw %struct.spgPickSplitIn, ptr %118, i32 0, i32 0
  %120 = load i32, ptr %119, align 8
  %121 = sext i32 %120 to i64
  call void @pg_qsort(ptr noundef %117, i64 noundef %121, i64 noundef 8, ptr noundef @compareDoubles)
  %122 = load ptr, ptr %3, align 8
  %123 = getelementptr inbounds nuw %struct.spgPickSplitIn, ptr %122, i32 0, i32 0
  %124 = load i32, ptr %123, align 8
  %125 = sdiv i32 %124, 2
  store i32 %125, ptr %6, align 4
  %126 = call ptr @palloc(i64 noundef 32)
  store ptr %126, ptr %5, align 8
  %127 = load ptr, ptr %8, align 8
  %128 = load i32, ptr %6, align 4
  %129 = sext i32 %128 to i64
  %130 = getelementptr inbounds double, ptr %127, i64 %129
  %131 = load double, ptr %130, align 8
  %132 = load ptr, ptr %5, align 8
  %133 = getelementptr inbounds nuw %struct.BOX, ptr %132, i32 0, i32 1
  %134 = getelementptr inbounds nuw %struct.Point, ptr %133, i32 0, i32 0
  store double %131, ptr %134, align 8
  %135 = load ptr, ptr %9, align 8
  %136 = load i32, ptr %6, align 4
  %137 = sext i32 %136 to i64
  %138 = getelementptr inbounds double, ptr %135, i64 %137
  %139 = load double, ptr %138, align 8
  %140 = load ptr, ptr %5, align 8
  %141 = getelementptr inbounds nuw %struct.BOX, ptr %140, i32 0, i32 0
  %142 = getelementptr inbounds nuw %struct.Point, ptr %141, i32 0, i32 0
  store double %139, ptr %142, align 8
  %143 = load ptr, ptr %10, align 8
  %144 = load i32, ptr %6, align 4
  %145 = sext i32 %144 to i64
  %146 = getelementptr inbounds double, ptr %143, i64 %145
  %147 = load double, ptr %146, align 8
  %148 = load ptr, ptr %5, align 8
  %149 = getelementptr inbounds nuw %struct.BOX, ptr %148, i32 0, i32 1
  %150 = getelementptr inbounds nuw %struct.Point, ptr %149, i32 0, i32 1
  store double %147, ptr %150, align 8
  %151 = load ptr, ptr %11, align 8
  %152 = load i32, ptr %6, align 4
  %153 = sext i32 %152 to i64
  %154 = getelementptr inbounds double, ptr %151, i64 %153
  %155 = load double, ptr %154, align 8
  %156 = load ptr, ptr %5, align 8
  %157 = getelementptr inbounds nuw %struct.BOX, ptr %156, i32 0, i32 0
  %158 = getelementptr inbounds nuw %struct.Point, ptr %157, i32 0, i32 1
  store double %155, ptr %158, align 8
  %159 = load ptr, ptr %4, align 8
  %160 = getelementptr inbounds nuw %struct.spgPickSplitOut, ptr %159, i32 0, i32 0
  store i8 1, ptr %160, align 8
  %161 = load ptr, ptr %5, align 8
  %162 = call i64 @BoxPGetDatum(ptr noundef %161)
  %163 = load ptr, ptr %4, align 8
  %164 = getelementptr inbounds nuw %struct.spgPickSplitOut, ptr %163, i32 0, i32 1
  store i64 %162, ptr %164, align 8
  %165 = load ptr, ptr %4, align 8
  %166 = getelementptr inbounds nuw %struct.spgPickSplitOut, ptr %165, i32 0, i32 2
  store i32 16, ptr %166, align 8
  %167 = load ptr, ptr %4, align 8
  %168 = getelementptr inbounds nuw %struct.spgPickSplitOut, ptr %167, i32 0, i32 3
  store ptr null, ptr %168, align 8
  %169 = load ptr, ptr %3, align 8
  %170 = getelementptr inbounds nuw %struct.spgPickSplitIn, ptr %169, i32 0, i32 0
  %171 = load i32, ptr %170, align 8
  %172 = sext i32 %171 to i64
  %173 = mul i64 4, %172
  %174 = call ptr @palloc(i64 noundef %173)
  %175 = load ptr, ptr %4, align 8
  %176 = getelementptr inbounds nuw %struct.spgPickSplitOut, ptr %175, i32 0, i32 4
  store ptr %174, ptr %176, align 8
  %177 = load ptr, ptr %3, align 8
  %178 = getelementptr inbounds nuw %struct.spgPickSplitIn, ptr %177, i32 0, i32 0
  %179 = load i32, ptr %178, align 8
  %180 = sext i32 %179 to i64
  %181 = mul i64 8, %180
  %182 = call ptr @palloc(i64 noundef %181)
  %183 = load ptr, ptr %4, align 8
  %184 = getelementptr inbounds nuw %struct.spgPickSplitOut, ptr %183, i32 0, i32 5
  store ptr %182, ptr %184, align 8
  store i32 0, ptr %7, align 4
  br label %185

185:                                              ; preds = %219, %101
  %186 = load i32, ptr %7, align 4
  %187 = load ptr, ptr %3, align 8
  %188 = getelementptr inbounds nuw %struct.spgPickSplitIn, ptr %187, i32 0, i32 0
  %189 = load i32, ptr %188, align 8
  %190 = icmp slt i32 %186, %189
  br i1 %190, label %191, label %222

191:                                              ; preds = %185
  call void @llvm.lifetime.start.p0(i64 8, ptr %13) #6
  %192 = load ptr, ptr %3, align 8
  %193 = getelementptr inbounds nuw %struct.spgPickSplitIn, ptr %192, i32 0, i32 1
  %194 = load ptr, ptr %193, align 8
  %195 = load i32, ptr %7, align 4
  %196 = sext i32 %195 to i64
  %197 = getelementptr inbounds i64, ptr %194, i64 %196
  %198 = load i64, ptr %197, align 8
  %199 = call ptr @DatumGetBoxP(i64 noundef %198)
  store ptr %199, ptr %13, align 8
  call void @llvm.lifetime.start.p0(i64 1, ptr %14) #6
  %200 = load ptr, ptr %5, align 8
  %201 = load ptr, ptr %13, align 8
  %202 = call zeroext i8 @getQuadrant(ptr noundef %200, ptr noundef %201)
  store i8 %202, ptr %14, align 1
  %203 = load ptr, ptr %13, align 8
  %204 = call i64 @BoxPGetDatum(ptr noundef %203)
  %205 = load ptr, ptr %4, align 8
  %206 = getelementptr inbounds nuw %struct.spgPickSplitOut, ptr %205, i32 0, i32 5
  %207 = load ptr, ptr %206, align 8
  %208 = load i32, ptr %7, align 4
  %209 = sext i32 %208 to i64
  %210 = getelementptr inbounds i64, ptr %207, i64 %209
  store i64 %204, ptr %210, align 8
  %211 = load i8, ptr %14, align 1
  %212 = zext i8 %211 to i32
  %213 = load ptr, ptr %4, align 8
  %214 = getelementptr inbounds nuw %struct.spgPickSplitOut, ptr %213, i32 0, i32 4
  %215 = load ptr, ptr %214, align 8
  %216 = load i32, ptr %7, align 4
  %217 = sext i32 %216 to i64
  %218 = getelementptr inbounds i32, ptr %215, i64 %217
  store i32 %212, ptr %218, align 4
  call void @llvm.lifetime.end.p0(i64 1, ptr %14) #6
  call void @llvm.lifetime.end.p0(i64 8, ptr %13) #6
  br label %219

219:                                              ; preds = %191
  %220 = load i32, ptr %7, align 4
  %221 = add i32 %220, 1
  store i32 %221, ptr %7, align 4
  br label %185, !llvm.loop !8

222:                                              ; preds = %185
  call void @llvm.lifetime.end.p0(i64 8, ptr %11) #6
  call void @llvm.lifetime.end.p0(i64 8, ptr %10) #6
  call void @llvm.lifetime.end.p0(i64 8, ptr %9) #6
  call void @llvm.lifetime.end.p0(i64 8, ptr %8) #6
  call void @llvm.lifetime.end.p0(i64 4, ptr %7) #6
  call void @llvm.lifetime.end.p0(i64 4, ptr %6) #6
  call void @llvm.lifetime.end.p0(i64 8, ptr %5) #6
  call void @llvm.lifetime.end.p0(i64 8, ptr %4) #6
  call void @llvm.lifetime.end.p0(i64 8, ptr %3) #6
  ret i64 0
}