; Function Attrs: nounwind uwtable
define dso_local noundef i64 @spg_box_quad_picksplit(ptr noundef readonly captures(none) %0) local_unnamed_addr #2 {
  %2 = getelementptr inbounds nuw i8, ptr %0, i64 32
  %3 = load i64, ptr %2, align 8
  %4 = inttoptr i64 %3 to ptr
  %5 = getelementptr inbounds nuw i8, ptr %0, i64 48
  %6 = load i64, ptr %5, align 8
  %7 = inttoptr i64 %6 to ptr
  %8 = load i32, ptr %4, align 8
  %9 = sext i32 %8 to i64
  %10 = shl nsw i64 %9, 3
  %11 = tail call ptr @palloc(i64 noundef %10) #8
  %12 = load i32, ptr %4, align 8
  %13 = sext i32 %12 to i64
  %14 = shl nsw i64 %13, 3
  %15 = tail call ptr @palloc(i64 noundef %14) #8
  %16 = load i32, ptr %4, align 8
  %17 = sext i32 %16 to i64
  %18 = shl nsw i64 %17, 3
  %19 = tail call ptr @palloc(i64 noundef %18) #8
  %20 = load i32, ptr %4, align 8
  %21 = sext i32 %20 to i64
  %22 = shl nsw i64 %21, 3
  %23 = tail call ptr @palloc(i64 noundef %22) #8
  %24 = load i32, ptr %4, align 8
  %25 = icmp sgt i32 %24, 0
  br i1 %25, label %.lr.ph, label %.._crit_edge_crit_edge

.._crit_edge_crit_edge:                           ; preds = %1
  %.pre = sext i32 %24 to i64
  br label %._crit_edge

.lr.ph:                                           ; preds = %1
  %26 = getelementptr inbounds nuw i8, ptr %4, i64 8
  br label %27

27:                                               ; preds = %.lr.ph, %27
  %indvars.iv = phi i64 [ 0, %.lr.ph ], [ %indvars.iv.next, %27 ]
  %28 = load ptr, ptr %26, align 8
  %29 = getelementptr inbounds nuw i64, ptr %28, i64 %indvars.iv
  %30 = load i64, ptr %29, align 8
  %31 = inttoptr i64 %30 to ptr
  %32 = getelementptr inbounds nuw i8, ptr %31, i64 16
  %33 = load double, ptr %32, align 8
  %34 = getelementptr inbounds nuw double, ptr %11, i64 %indvars.iv
  store double %33, ptr %34, align 8
  %35 = load double, ptr %31, align 8
  %36 = getelementptr inbounds nuw double, ptr %15, i64 %indvars.iv
  store double %35, ptr %36, align 8
  %37 = getelementptr inbounds nuw i8, ptr %31, i64 24
  %38 = load double, ptr %37, align 8
  %39 = getelementptr inbounds nuw double, ptr %19, i64 %indvars.iv
  store double %38, ptr %39, align 8
  %40 = getelementptr inbounds nuw i8, ptr %31, i64 8
  %41 = load double, ptr %40, align 8
  %42 = getelementptr inbounds nuw double, ptr %23, i64 %indvars.iv
  store double %41, ptr %42, align 8
  %indvars.iv.next = add nuw nsw i64 %indvars.iv, 1
  %43 = load i32, ptr %4, align 8
  %44 = sext i32 %43 to i64
  %45 = icmp slt i64 %indvars.iv.next, %44
  br i1 %45, label %27, label %._crit_edge, !llvm.loop !6

._crit_edge:                                      ; preds = %27, %.._crit_edge_crit_edge
  %.pre-phi = phi i64 [ %.pre, %.._crit_edge_crit_edge ], [ %44, %27 ]
  tail call void @pg_qsort(ptr noundef %11, i64 noundef %.pre-phi, i64 noundef 8, ptr noundef nonnull @compareDoubles) #8
  %46 = load i32, ptr %4, align 8
  %47 = sext i32 %46 to i64
  tail call void @pg_qsort(ptr noundef %15, i64 noundef %47, i64 noundef 8, ptr noundef nonnull @compareDoubles) #8
  %48 = load i32, ptr %4, align 8
  %49 = sext i32 %48 to i64
  tail call void @pg_qsort(ptr noundef %19, i64 noundef %49, i64 noundef 8, ptr noundef nonnull @compareDoubles) #8
  %50 = load i32, ptr %4, align 8
  %51 = sext i32 %50 to i64
  tail call void @pg_qsort(ptr noundef %23, i64 noundef %51, i64 noundef 8, ptr noundef nonnull @compareDoubles) #8
  %52 = load i32, ptr %4, align 8
  %53 = sdiv i32 %52, 2
  %54 = tail call ptr @palloc(i64 noundef 32) #8
  %55 = sext i32 %53 to i64
  %56 = getelementptr inbounds double, ptr %11, i64 %55
  %57 = load double, ptr %56, align 8
  %58 = getelementptr inbounds nuw i8, ptr %54, i64 16
  store double %57, ptr %58, align 8
  %59 = getelementptr inbounds double, ptr %15, i64 %55
  %60 = load double, ptr %59, align 8
  store double %60, ptr %54, align 8
  %61 = getelementptr inbounds double, ptr %19, i64 %55
  %62 = load double, ptr %61, align 8
  %63 = getelementptr inbounds nuw i8, ptr %54, i64 24
  store double %62, ptr %63, align 8
  %64 = getelementptr inbounds double, ptr %23, i64 %55
  %65 = load double, ptr %64, align 8
  %66 = getelementptr inbounds nuw i8, ptr %54, i64 8
  store double %65, ptr %66, align 8
  store i8 1, ptr %7, align 8
  %67 = ptrtoint ptr %54 to i64
  %68 = getelementptr inbounds nuw i8, ptr %7, i64 8
  store i64 %67, ptr %68, align 8
  %69 = getelementptr inbounds nuw i8, ptr %7, i64 16
  store i32 16, ptr %69, align 8
  %70 = getelementptr inbounds nuw i8, ptr %7, i64 24
  store ptr null, ptr %70, align 8
  %71 = load i32, ptr %4, align 8
  %72 = sext i32 %71 to i64
  %73 = shl nsw i64 %72, 2
  %74 = tail call ptr @palloc(i64 noundef %73) #8
  %75 = getelementptr inbounds nuw i8, ptr %7, i64 32
  store ptr %74, ptr %75, align 8
  %76 = load i32, ptr %4, align 8
  %77 = sext i32 %76 to i64
  %78 = shl nsw i64 %77, 3
  %79 = tail call ptr @palloc(i64 noundef %78) #8
  %80 = getelementptr inbounds nuw i8, ptr %7, i64 40
  store ptr %79, ptr %80, align 8
  %81 = load i32, ptr %4, align 8
  %82 = icmp sgt i32 %81, 0
  br i1 %82, label %.lr.ph69, label %._crit_edge70

.lr.ph69:                                         ; preds = %._crit_edge
  %83 = getelementptr inbounds nuw i8, ptr %4, i64 8
  br label %84

84:                                               ; preds = %.lr.ph69, %84
  %indvars.iv73 = phi i64 [ 0, %.lr.ph69 ], [ %indvars.iv.next74, %84 ]
  %85 = load ptr, ptr %83, align 8
  %86 = getelementptr inbounds nuw i64, ptr %85, i64 %indvars.iv73
  %87 = load i64, ptr %86, align 8
  %88 = inttoptr i64 %87 to ptr
  %89 = getelementptr inbounds nuw i8, ptr %88, i64 16
  %90 = load double, ptr %89, align 8
  %91 = load double, ptr %58, align 8
  %92 = fcmp ogt double %90, %91
  %.0.i = select i1 %92, i8 8, i8 0
  %93 = load double, ptr %88, align 8
  %94 = load double, ptr %54, align 8
  %95 = fcmp ogt double %93, %94
  %96 = or disjoint i8 %.0.i, 4
  %.1.i = select i1 %95, i8 %96, i8 %.0.i
  %97 = getelementptr inbounds nuw i8, ptr %88, i64 24
  %98 = load double, ptr %97, align 8
  %99 = load double, ptr %63, align 8
  %100 = fcmp ogt double %98, %99
  %101 = or disjoint i8 %.1.i, 2
  %.2.i = select i1 %100, i8 %101, i8 %.1.i
  %102 = getelementptr inbounds nuw i8, ptr %88, i64 8
  %103 = load double, ptr %102, align 8
  %104 = load double, ptr %66, align 8
  %105 = fcmp ogt double %103, %104
  %106 = zext i1 %105 to i8
  %.3.i = or disjoint i8 %.2.i, %106
  %107 = load ptr, ptr %80, align 8
  %108 = getelementptr inbounds nuw i64, ptr %107, i64 %indvars.iv73
  store i64 %87, ptr %108, align 8
  %109 = zext nneg i8 %.3.i to i32
  %110 = load ptr, ptr %75, align 8
  %111 = getelementptr inbounds nuw i32, ptr %110, i64 %indvars.iv73
  store i32 %109, ptr %111, align 4
  %indvars.iv.next74 = add nuw nsw i64 %indvars.iv73, 1
  %112 = load i32, ptr %4, align 8
  %113 = sext i32 %112 to i64
  %114 = icmp slt i64 %indvars.iv.next74, %113
  br i1 %114, label %84, label %._crit_edge70, !llvm.loop !8

._crit_edge70:                                    ; preds = %84, %._crit_edge
  ret i64 0
}